target datalayout = "e-m:e-p270:32:32-p271:32:32-p272:64:64-i64:64-i128:128-f80:128-n8:16:32:64-S128"
target triple = "x86_64-pc-linux-gnu"

%struct.AVBPrint = type { ptr, i32, i32, i32, [1 x i8], [1000 x i8] }

@.str.7 = private unnamed_addr constant [3 x i8] c"%s\00", align 1
@.str.17 = private unnamed_addr constant [3 x i8] c"\\b\00", align 1
@.str.18 = private unnamed_addr constant [3 x i8] c"\\f\00", align 1
@.str.19 = private unnamed_addr constant [3 x i8] c"\\n\00", align 1
@.str.20 = private unnamed_addr constant [3 x i8] c"\\r\00", align 1
@.str.21 = private unnamed_addr constant [3 x i8] c"\\t\00", align 1
@.str.22 = private unnamed_addr constant [9 x i8] c"\\x00%02x\00", align 1

; Function Attrs: nounwind uwtable
define internal ptr @ini_escape_str(ptr noundef %0, ptr noundef %1) #0 {
  %3 = alloca ptr, align 8
  %4 = alloca ptr, align 8
  %5 = alloca i32, align 4
  %6 = alloca i8, align 1
  store ptr %0, ptr %3, align 8, !tbaa !22
  store ptr %1, ptr %4, align 8, !tbaa !36
  call void @llvm.lifetime.start.p0(i64 4, ptr %5) #5
  store i32 0, ptr %5, align 4, !tbaa !25
  call void @llvm.lifetime.start.p0(i64 1, ptr %6) #5
  br label %7

7:                                                ; preds = %42, %2
  %8 = load ptr, ptr %4, align 8, !tbaa !36
  %9 = load i32, ptr %5, align 4, !tbaa !25
  %10 = add nsw i32 %9, 1
  store i32 %10, ptr %5, align 4, !tbaa !25
  %11 = sext i32 %9 to i64
  %12 = getelementptr inbounds i8, ptr %8, i64 %11
  %13 = load i8, ptr %12, align 1, !tbaa !33
  store i8 %13, ptr %6, align 1, !tbaa !33
  %14 = icmp ne i8 %13, 0
  br i1 %14, label %15, label %43

15:                                               ; preds = %7
  %16 = load i8, ptr %6, align 1, !tbaa !33
  %17 = sext i8 %16 to i32
  switch i32 %17, label %30 [
    i32 8, label %18
    i32 12, label %20
    i32 10, label %22
    i32 13, label %24
    i32 9, label %26
    i32 92, label %28
    i32 35, label %28
    i32 61, label %28
    i32 58, label %28
  ]

18:                                               ; preds = %15
  %19 = load ptr, ptr %3, align 8, !tbaa !22
  call void (ptr, ptr, ...) @av_bprintf(ptr noundef %19, ptr noundef @.str.7, ptr noundef @.str.17)
  br label %42

20:                                               ; preds = %15
  %21 = load ptr, ptr %3, align 8, !tbaa !22
  call void (ptr, ptr, ...) @av_bprintf(ptr noundef %21, ptr noundef @.str.7, ptr noundef @.str.18)
  br label %42

22:                                               ; preds = %15
  %23 = load ptr, ptr %3, align 8, !tbaa !22
  call void (ptr, ptr, ...) @av_bprintf(ptr noundef %23, ptr noundef @.str.7, ptr noundef @.str.19)
  br label %42

24:                                               ; preds = %15
  %25 = load ptr, ptr %3, align 8, !tbaa !22
  call void (ptr, ptr, ...) @av_bprintf(ptr noundef %25, ptr noundef @.str.7, ptr noundef @.str.20)
  br label %42

26:                                               ; preds = %15
  %27 = load ptr, ptr %3, align 8, !tbaa !22
  call void (ptr, ptr, ...) @av_bprintf(ptr noundef %27, ptr noundef @.str.7, ptr noundef @.str.21)
  br label %42

28:                                               ; preds = %15, %15, %15, %15
  %29 = load ptr, ptr %3, align 8, !tbaa !22
  call void @av_bprint_chars(ptr noundef %29, i8 noundef signext 92, i32 noundef 1)
  br label %30

30:                                               ; preds = %15, %28
  %31 = load i8, ptr %6, align 1, !tbaa !33
  %32 = zext i8 %31 to i32
  %33 = icmp slt i32 %32, 32
  br i1 %33, label %34, label %38

34:                                               ; preds = %30
  %35 = load ptr, ptr %3, align 8, !tbaa !22
  %36 = load i8, ptr %6, align 1, !tbaa !33
  %37 = zext i8 %36 to i32
  call void (ptr, ptr, ...) @av_bprintf(ptr noundef %35, ptr noundef @.str.22, i32 noundef %37)
  br label %41

38:                                               ; preds = %30
  %39 = load ptr, ptr %3, align 8, !tbaa !22
  %40 = load i8, ptr %6, align 1, !tbaa !33
  call void @av_bprint_chars(ptr noundef %39, i8 noundef signext %40, i32 noundef 1)
  br label %41

41:                                               ; preds = %38, %34
  br label %42

42:                                               ; preds = %41, %26, %24, %22, %20, %18
  br label %7, !llvm.loop !47

43:                                               ; preds = %7
  %44 = load ptr, ptr %3, align 8, !tbaa !22
  %45 = getelementptr inbounds nuw %struct.AVBPrint, ptr %44, i32 0, i32 0
  %46 = load ptr, ptr %45, align 8, !tbaa !26
  call void @llvm.lifetime.end.p0(i64 1, ptr %6) #5
  call void @llvm.lifetime.end.p0(i64 4, ptr %5) #5
  ret ptr %46
}