; Function Attrs: nounwind uwtable
define internal fastcc ptr @ini_escape_str(ptr noundef nonnull %0, ptr noundef readonly captures(none) %1) unnamed_addr #0 {
  br label %3

3:                                                ; preds = %.backedge, %2
  %indvars.iv = phi i64 [ 0, %2 ], [ %indvars.iv.next, %.backedge ]
  %indvars.iv.next = add nuw nsw i64 %indvars.iv, 1
  %4 = getelementptr inbounds nuw i8, ptr %1, i64 %indvars.iv
  %5 = load i8, ptr %4, align 1, !tbaa !33
  switch i8 %5, label %11 [
    i8 0, label %16
    i8 8, label %6
    i8 12, label %7
    i8 10, label %8
    i8 13, label %9
    i8 9, label %10
    i8 92, label %.thread
    i8 35, label %.thread
    i8 61, label %.thread
    i8 58, label %.thread
  ]

6:                                                ; preds = %3
  tail call void (ptr, ptr, ...) @av_bprintf(ptr noundef nonnull %0, ptr noundef nonnull @.str.7, ptr noundef nonnull @.str.17) #5
  br label %.backedge

7:                                                ; preds = %3
  tail call void (ptr, ptr, ...) @av_bprintf(ptr noundef nonnull %0, ptr noundef nonnull @.str.7, ptr noundef nonnull @.str.18) #5
  br label %.backedge

8:                                                ; preds = %3
  tail call void (ptr, ptr, ...) @av_bprintf(ptr noundef nonnull %0, ptr noundef nonnull @.str.7, ptr noundef nonnull @.str.19) #5
  br label %.backedge

9:                                                ; preds = %3
  tail call void (ptr, ptr, ...) @av_bprintf(ptr noundef nonnull %0, ptr noundef nonnull @.str.7, ptr noundef nonnull @.str.20) #5
  br label %.backedge

10:                                               ; preds = %3
  tail call void (ptr, ptr, ...) @av_bprintf(ptr noundef nonnull %0, ptr noundef nonnull @.str.7, ptr noundef nonnull @.str.21) #5
  br label %.backedge

.thread:                                          ; preds = %3, %3, %3, %3
  tail call void @av_bprint_chars(ptr noundef nonnull %0, i8 noundef signext 92, i32 noundef 1) #5
  br label %15

11:                                               ; preds = %3
  %12 = icmp ult i8 %5, 32
  br i1 %12, label %13, label %15

13:                                               ; preds = %11
  %14 = zext nneg i8 %5 to i32
  tail call void (ptr, ptr, ...) @av_bprintf(ptr noundef nonnull %0, ptr noundef nonnull @.str.22, i32 noundef %14) #5
  br label %.backedge

.backedge:                                        ; preds = %13, %15, %10, %9, %8, %7, %6
  br label %3, !llvm.loop !37

15:                                               ; preds = %.thread, %11
  tail call void @av_bprint_chars(ptr noundef nonnull %0, i8 noundef signext %5, i32 noundef 1) #5
  br label %.backedge

16:                                               ; preds = %3
  %17 = load ptr, ptr %0, align 8, !tbaa !26
  ret ptr %17
}